target datalayout = "e-m:e-p270:32:32-p271:32:32-p272:64:64-i64:64-i128:128-f80:128-n8:16:32:64-S128"
target triple = "x86_64-pc-linux-gnu"

%"class.std::__cxx11::basic_string" = type { %"struct.std::__cxx11::basic_string<char>::_Alloc_hider", i64, %union.anon }
%"struct.std::__cxx11::basic_string<char>::_Alloc_hider" = type { ptr }
%union.anon = type { i64, [8 x i8] }
%"class.std::allocator" = type { i8 }

@_ZTISt9exception = external constant ptr
@_ZTINSt7__cxx1112basic_stringIcSt11char_traitsIcESaIcEEE = linkonce_odr constant { ptr, ptr } { ptr getelementptr inbounds (ptr, ptr @_ZTVN10__cxxabiv117__class_type_infoE, i64 2), ptr @_ZTSNSt7__cxx1112basic_stringIcSt11char_traitsIcESaIcEEE }, comdat, align 8
@.str = private unnamed_addr constant [18 x i8] c"unknown exception\00", align 1
@.str.1 = private unnamed_addr constant [3 x i8] c"%s\00", align 1

; Function Attrs: mustprogress nounwind uwtable
define linkonce_odr void @_ZNSt15__new_allocatorIcE10deallocateEPcm(ptr noundef nonnull align 1 dereferenceable(1) %0, ptr noundef %1, i64 noundef %2) #5 comdat align 2 {
  %4 = alloca ptr, align 8
  %5 = alloca ptr, align 8
  %6 = alloca i64, align 8
  store ptr %0, ptr %4, align 8, !tbaa !26
  store ptr %1, ptr %5, align 8, !tbaa !11
  store i64 %2, ptr %6, align 8, !tbaa !4
  %7 = load ptr, ptr %5, align 8, !tbaa !11
  call void @_ZdlPv(ptr noundef %7) #32
  ret void
}

; Function Attrs: mustprogress nounwind uwtable
define linkonce_odr noundef ptr @_ZNSt19__ptr_traits_ptr_toIPKcS0_Lb0EE10pointer_toERS0_(ptr noundef nonnull align 1 dereferenceable(1) %0) #5 comdat align 2 {
  %2 = alloca ptr, align 8
  store ptr %0, ptr %2, align 8, !tbaa !11
  %3 = load ptr, ptr %2, align 8, !tbaa !11
  ret ptr %3
}

; Function Attrs: mustprogress uwtable
define linkonce_odr void @_ZNSt16allocator_traitsISaIcEE10deallocateERS0_Pcm(ptr noundef nonnull align 1 dereferenceable(1) %0, ptr noundef %1, i64 noundef %2) #4 comdat align 2 {
  %4 = alloca ptr, align 8
  %5 = alloca ptr, align 8
  %6 = alloca i64, align 8
  store ptr %0, ptr %4, align 8, !tbaa !20
  store ptr %1, ptr %5, align 8, !tbaa !11
  store i64 %2, ptr %6, align 8, !tbaa !4
  %7 = load ptr, ptr %4, align 8, !tbaa !20
  %8 = load ptr, ptr %5, align 8, !tbaa !11
  %9 = load i64, ptr %6, align 8, !tbaa !4
  call void @_ZNSt15__new_allocatorIcE10deallocateEPcm(ptr noundef nonnull align 1 dereferenceable(1) %7, ptr noundef %8, i64 noundef %9)
  ret void
}

; Function Attrs: mustprogress nounwind uwtable
define available_externally noundef nonnull align 1 dereferenceable(1) ptr @_ZNSt7__cxx1112basic_stringIcSt11char_traitsIcESaIcEE16_M_get_allocatorEv(ptr noundef nonnull align 8 dereferenceable(32) %0) #5 align 2 {
  %2 = alloca ptr, align 8
  store ptr %0, ptr %2, align 8, !tbaa !15
  %3 = load ptr, ptr %2, align 8
  %4 = getelementptr inbounds nuw %"class.std::__cxx11::basic_string", ptr %3, i32 0, i32 0
  ret ptr %4
}

; Function Attrs: mustprogress nounwind uwtable
define available_externally noundef ptr @_ZNKSt7__cxx1112basic_stringIcSt11char_traitsIcESaIcEE13_M_local_dataEv(ptr noundef nonnull align 8 dereferenceable(32) %0) #5 align 2 {
  %2 = alloca ptr, align 8
  store ptr %0, ptr %2, align 8, !tbaa !15
  %3 = load ptr, ptr %2, align 8
  %4 = getelementptr inbounds nuw %"class.std::__cxx11::basic_string", ptr %3, i32 0, i32 2
  %5 = getelementptr inbounds [16 x i8], ptr %4, i64 0, i64 0
  %6 = call noundef ptr @_ZNSt19__ptr_traits_ptr_toIPKcS0_Lb0EE10pointer_toERS0_(ptr noundef nonnull align 1 dereferenceable(1) %5) #3
  ret ptr %6
}

; Function Attrs: mustprogress nounwind uwtable
define available_externally void @_ZNSt7__cxx1112basic_stringIcSt11char_traitsIcESaIcEE10_M_destroyEm(ptr noundef nonnull align 8 dereferenceable(32) %0, i64 noundef %1) #5 align 2 personality ptr @__gxx_personality_v0 {
  %3 = alloca ptr, align 8
  %4 = alloca i64, align 8
  %5 = alloca ptr, align 8
  %6 = alloca i32, align 4
  store ptr %0, ptr %3, align 8, !tbaa !15
  store i64 %1, ptr %4, align 8, !tbaa !4
  %7 = load ptr, ptr %3, align 8
  %8 = invoke noundef nonnull align 1 dereferenceable(1) ptr @_ZNSt7__cxx1112basic_stringIcSt11char_traitsIcESaIcEE16_M_get_allocatorEv(ptr noundef nonnull align 8 dereferenceable(32) %7)
          to label %9 unwind label %14

9:                                                ; preds = %2
  %10 = call noundef ptr @_ZNKSt7__cxx1112basic_stringIcSt11char_traitsIcESaIcEE7_M_dataEv(ptr noundef nonnull align 8 dereferenceable(32) %7)
  %11 = load i64, ptr %4, align 8, !tbaa !4
  %12 = add i64 %11, 1
  invoke void @_ZNSt16allocator_traitsISaIcEE10deallocateERS0_Pcm(ptr noundef nonnull align 1 dereferenceable(1) %8, ptr noundef %10, i64 noundef %12)
          to label %13 unwind label %14

13:                                               ; preds = %9
  ret void

14:                                               ; preds = %9, %2
  %15 = landingpad { ptr, i32 }
          filter [0 x ptr] zeroinitializer
  %16 = extractvalue { ptr, i32 } %15, 0
  store ptr %16, ptr %5, align 8
  %17 = extractvalue { ptr, i32 } %15, 1
  store i32 %17, ptr %6, align 4
  br label %18

18:                                               ; preds = %14
  %19 = load ptr, ptr %5, align 8
  call void @__cxa_call_unexpected(ptr %19) #31
  unreachable
}

; Function Attrs: mustprogress uwtable
define available_externally noundef zeroext i1 @_ZNKSt7__cxx1112basic_stringIcSt11char_traitsIcESaIcEE11_M_is_localEv(ptr noundef nonnull align 8 dereferenceable(32) %0) #4 align 2 {
  %2 = alloca i1, align 1
  %3 = alloca ptr, align 8
  store ptr %0, ptr %3, align 8, !tbaa !15
  %4 = load ptr, ptr %3, align 8
  %5 = call noundef ptr @_ZNKSt7__cxx1112basic_stringIcSt11char_traitsIcESaIcEE7_M_dataEv(ptr noundef nonnull align 8 dereferenceable(32) %4)
  %6 = call noundef ptr @_ZNKSt7__cxx1112basic_stringIcSt11char_traitsIcESaIcEE13_M_local_dataEv(ptr noundef nonnull align 8 dereferenceable(32) %4)
  %7 = icmp eq ptr %5, %6
  br i1 %7, label %8, label %14

8:                                                ; preds = %1
  %9 = getelementptr inbounds nuw %"class.std::__cxx11::basic_string", ptr %4, i32 0, i32 1
  %10 = load i64, ptr %9, align 8, !tbaa !17
  %11 = icmp ugt i64 %10, 15
  br i1 %11, label %12, label %13

12:                                               ; preds = %8
  unreachable

13:                                               ; preds = %8
  store i1 true, ptr %2, align 1
  br label %15

14:                                               ; preds = %1
  store i1 false, ptr %2, align 1
  br label %15

15:                                               ; preds = %14, %13
  %16 = load i1, ptr %2, align 1
  ret i1 %16
}

; Function Attrs: mustprogress nounwind uwtable
define available_externally noundef ptr @_ZNKSt7__cxx1112basic_stringIcSt11char_traitsIcESaIcEE7_M_dataEv(ptr noundef nonnull align 8 dereferenceable(32) %0) #5 align 2 {
  %2 = alloca ptr, align 8
  store ptr %0, ptr %2, align 8, !tbaa !15
  %3 = load ptr, ptr %2, align 8
  %4 = getelementptr inbounds nuw %"class.std::__cxx11::basic_string", ptr %3, i32 0, i32 0
  %5 = getelementptr inbounds nuw %"struct.std::__cxx11::basic_string<char>::_Alloc_hider", ptr %4, i32 0, i32 0
  %6 = load ptr, ptr %5, align 8, !tbaa !24
  ret ptr %6
}

; Function Attrs: mustprogress nounwind uwtable
define internal noundef ptr @_ZL12LastErrorMsgv() #5 {
  %1 = call align 16 ptr @llvm.threadlocal.address.p0(ptr align 16 @_ZZL12LastErrorMsgvE7err_msg)
  %2 = getelementptr inbounds [512 x i8], ptr %1, i64 0, i64 0
  ret ptr %2
}

; Function Attrs: mustprogress uwtable
define available_externally void @_ZNSt7__cxx1112basic_stringIcSt11char_traitsIcESaIcEE10_M_disposeEv(ptr noundef nonnull align 8 dereferenceable(32) %0) #4 align 2 {
  %2 = alloca ptr, align 8
  store ptr %0, ptr %2, align 8, !tbaa !15
  %3 = load ptr, ptr %2, align 8
  %4 = call noundef zeroext i1 @_ZNKSt7__cxx1112basic_stringIcSt11char_traitsIcESaIcEE11_M_is_localEv(ptr noundef nonnull align 8 dereferenceable(32) %3)
  br i1 %4, label %8, label %5

5:                                                ; preds = %1
  %6 = getelementptr inbounds nuw %"class.std::__cxx11::basic_string", ptr %3, i32 0, i32 2
  %7 = load i64, ptr %6, align 8, !tbaa !25
  call void @_ZNSt7__cxx1112basic_stringIcSt11char_traitsIcESaIcEE10_M_destroyEm(ptr noundef nonnull align 8 dereferenceable(32) %3, i64 noundef %7) #3
  br label %8

8:                                                ; preds = %5, %1
  ret void
}

; Function Attrs: mustprogress nounwind uwtable
define linkonce_odr void @_ZNSt15__new_allocatorIcEC2Ev(ptr noundef nonnull align 1 dereferenceable(1) %0) unnamed_addr #5 comdat align 2 {
  %2 = alloca ptr, align 8
  store ptr %0, ptr %2, align 8, !tbaa !26
  ret void
}

; Function Attrs: mustprogress nounwind uwtable
define available_externally noundef ptr @_ZNKSt7__cxx1112basic_stringIcSt11char_traitsIcESaIcEE5c_strEv(ptr noundef nonnull align 8 dereferenceable(32) %0) #5 align 2 personality ptr @__gxx_personality_v0 {
  %2 = alloca ptr, align 8
  store ptr %0, ptr %2, align 8, !tbaa !15
  %3 = load ptr, ptr %2, align 8
  %4 = invoke noundef ptr @_ZNKSt7__cxx1112basic_stringIcSt11char_traitsIcESaIcEE7_M_dataEv(ptr noundef nonnull align 8 dereferenceable(32) %3)
          to label %5 unwind label %6

5:                                                ; preds = %1
  ret ptr %4

6:                                                ; preds = %1
  %7 = landingpad { ptr, i32 }
          catch ptr null
  %8 = extractvalue { ptr, i32 } %7, 0
  call void @__clang_call_terminate(ptr %8) #30
  unreachable
}

; Function Attrs: inlinehint mustprogress nounwind uwtable
define linkonce_odr void @_Z17LGBM_SetLastErrorPKc(ptr noundef %0) #12 comdat {
  %2 = alloca ptr, align 8
  %3 = alloca i32, align 4
  store ptr %0, ptr %2, align 8, !tbaa !11
  call void @llvm.lifetime.start.p0(i64 4, ptr %3) #3
  store i32 512, ptr %3, align 4, !tbaa !28
  %4 = call noundef ptr @_ZL12LastErrorMsgv()
  %5 = load ptr, ptr %2, align 8, !tbaa !11
  %6 = call i32 (ptr, i64, ptr, ...) @snprintf(ptr noundef %4, i64 noundef 512, ptr noundef @.str.1, ptr noundef %5) #3
  call void @llvm.lifetime.end.p0(i64 4, ptr %3) #3
  ret void
}

; Function Attrs: mustprogress nounwind uwtable
define linkonce_odr void @_ZNSt15__new_allocatorIcED2Ev(ptr noundef nonnull align 1 dereferenceable(1) %0) unnamed_addr #5 comdat align 2 {
  %2 = alloca ptr, align 8
  store ptr %0, ptr %2, align 8, !tbaa !26
  ret void
}

; Function Attrs: mustprogress nounwind uwtable
define available_externally void @_ZNSt7__cxx1112basic_stringIcSt11char_traitsIcESaIcEED2Ev(ptr noundef nonnull align 8 dereferenceable(32) %0) unnamed_addr #5 align 2 personality ptr @__gxx_personality_v0 {
  %2 = alloca ptr, align 8
  store ptr %0, ptr %2, align 8, !tbaa !15
  %3 = load ptr, ptr %2, align 8
  invoke void @_ZNSt7__cxx1112basic_stringIcSt11char_traitsIcESaIcEE10_M_disposeEv(ptr noundef nonnull align 8 dereferenceable(32) %3)
          to label %4 unwind label %6

4:                                                ; preds = %1
  %5 = getelementptr inbounds nuw %"class.std::__cxx11::basic_string", ptr %3, i32 0, i32 0
  call void @_ZNSt15__new_allocatorIcED2Ev(ptr noundef nonnull align 8 dereferenceable(8) %5) #3
  ret void

6:                                                ; preds = %1
  %7 = landingpad { ptr, i32 }
          catch ptr null
  %8 = extractvalue { ptr, i32 } %7, 0
  call void @__clang_call_terminate(ptr %8) #30
  unreachable
}

; Function Attrs: mustprogress nounwind uwtable
define available_externally void @_ZNSaIcEC2Ev(ptr noundef nonnull align 1 dereferenceable(1) %0) unnamed_addr #5 align 2 {
  %2 = alloca ptr, align 8
  store ptr %0, ptr %2, align 8, !tbaa !20
  %3 = load ptr, ptr %2, align 8
  call void @_ZNSt15__new_allocatorIcEC2Ev(ptr noundef nonnull align 1 dereferenceable(1) %3) #3
  ret void
}

; Function Attrs: inlinehint mustprogress uwtable
define linkonce_odr noundef i32 @_ZN8LightGBM23LGBM_APIHandleExceptionERKNSt7__cxx1112basic_stringIcSt11char_traitsIcESaIcEEE(ptr noundef nonnull align 8 dereferenceable(32) %0) #10 comdat {
  %2 = alloca ptr, align 8
  store ptr %0, ptr %2, align 8, !tbaa !15
  %3 = load ptr, ptr %2, align 8, !tbaa !15
  %4 = call noundef ptr @_ZNKSt7__cxx1112basic_stringIcSt11char_traitsIcESaIcEE5c_strEv(ptr noundef nonnull align 8 dereferenceable(32) %3) #3
  call void @_Z17LGBM_SetLastErrorPKc(ptr noundef %4)
  ret i32 -1
}

; Function Attrs: inlinehint mustprogress nounwind uwtable
define linkonce_odr noundef i32 @_ZN8LightGBM23LGBM_APIHandleExceptionERKSt9exception(ptr noundef nonnull align 8 dereferenceable(8) %0) #12 comdat {
  %2 = alloca ptr, align 8
  store ptr %0, ptr %2, align 8, !tbaa !13
  %3 = load ptr, ptr %2, align 8, !tbaa !13
  %4 = load ptr, ptr %3, align 8, !tbaa !22
  %5 = getelementptr inbounds ptr, ptr %4, i64 2
  %6 = load ptr, ptr %5, align 8
  %7 = call noundef ptr %6(ptr noundef nonnull align 8 dereferenceable(8) %3) #3
  call void @_Z17LGBM_SetLastErrorPKc(ptr noundef %7)
  ret i32 -1
}

; Function Attrs: mustprogress uwtable
define i32 @LGBM_DatasetAddFeaturesFrom(ptr noundef %0, ptr noundef %1) #4 personality ptr @__gxx_personality_v0 {
  %3 = alloca i32, align 4
  %4 = alloca ptr, align 8
  %5 = alloca ptr, align 8
  %6 = alloca ptr, align 8
  %7 = alloca ptr, align 8
  %8 = alloca ptr, align 8
  %9 = alloca i32, align 4
  %10 = alloca %"class.std::__cxx11::basic_string", align 8
  %11 = alloca %"class.std::allocator", align 1
  %12 = alloca ptr, align 8
  %13 = alloca ptr, align 8
  store ptr %0, ptr %4, align 8, !tbaa !40
  store ptr %1, ptr %5, align 8, !tbaa !40
  call void @llvm.lifetime.start.p0(i64 8, ptr %6) #3
  %14 = load ptr, ptr %4, align 8, !tbaa !40
  store ptr %14, ptr %6, align 8, !tbaa !426
  call void @llvm.lifetime.start.p0(i64 8, ptr %7) #3
  %15 = load ptr, ptr %5, align 8, !tbaa !40
  store ptr %15, ptr %7, align 8, !tbaa !426
  %16 = load ptr, ptr %6, align 8, !tbaa !426
  %17 = load ptr, ptr %7, align 8, !tbaa !426
  invoke void @_ZN8LightGBM7Dataset15AddFeaturesFromEPS0_(ptr noundef nonnull align 8 dereferenceable(864) %16, ptr noundef %17)
          to label %18 unwind label %19

18:                                               ; preds = %2
  call void @llvm.lifetime.end.p0(i64 8, ptr %7) #3
  call void @llvm.lifetime.end.p0(i64 8, ptr %6) #3
  br label %62

19:                                               ; preds = %2
  %20 = landingpad { ptr, i32 }
          catch ptr @_ZTISt9exception
          catch ptr @_ZTINSt7__cxx1112basic_stringIcSt11char_traitsIcESaIcEEE
          catch ptr null
  %21 = extractvalue { ptr, i32 } %20, 0
  store ptr %21, ptr %8, align 8
  %22 = extractvalue { ptr, i32 } %20, 1
  store i32 %22, ptr %9, align 4
  call void @llvm.lifetime.end.p0(i64 8, ptr %7) #3
  call void @llvm.lifetime.end.p0(i64 8, ptr %6) #3
  br label %23

23:                                               ; preds = %19
  %24 = load i32, ptr %9, align 4
  %25 = call i32 @llvm.eh.typeid.for.p0(ptr @_ZTISt9exception) #3
  %26 = icmp eq i32 %24, %25
  br i1 %26, label %27, label %32

27:                                               ; preds = %23
  call void @llvm.lifetime.start.p0(i64 8, ptr %13) #3
  %28 = load ptr, ptr %8, align 8
  %29 = call ptr @__cxa_begin_catch(ptr %28) #3
  store ptr %29, ptr %13, align 8
  %30 = load ptr, ptr %13, align 8, !tbaa !13
  %31 = call noundef i32 @_ZN8LightGBM23LGBM_APIHandleExceptionERKSt9exception(ptr noundef nonnull align 8 dereferenceable(8) %30)
  store i32 %31, ptr %3, align 4
  call void @__cxa_end_catch()
  call void @llvm.lifetime.end.p0(i64 8, ptr %13) #3
  br label %63

32:                                               ; preds = %23
  %33 = call i32 @llvm.eh.typeid.for.p0(ptr @_ZTINSt7__cxx1112basic_stringIcSt11char_traitsIcESaIcEEE) #3
  %34 = icmp eq i32 %24, %33
  br i1 %34, label %35, label %41

35:                                               ; preds = %32
  call void @llvm.lifetime.start.p0(i64 8, ptr %12) #3
  %36 = load ptr, ptr %8, align 8
  %37 = call ptr @__cxa_begin_catch(ptr %36) #3
  store ptr %37, ptr %12, align 8
  %38 = load ptr, ptr %12, align 8, !tbaa !15
  %39 = invoke noundef i32 @_ZN8LightGBM23LGBM_APIHandleExceptionERKNSt7__cxx1112basic_stringIcSt11char_traitsIcESaIcEEE(ptr noundef nonnull align 8 dereferenceable(32) %38)
          to label %40 unwind label %57

40:                                               ; preds = %35
  store i32 %39, ptr %3, align 4
  call void @__cxa_end_catch()
  call void @llvm.lifetime.end.p0(i64 8, ptr %12) #3
  br label %63

41:                                               ; preds = %32
  %42 = load ptr, ptr %8, align 8
  %43 = call ptr @__cxa_begin_catch(ptr %42) #3
  call void @llvm.lifetime.start.p0(i64 32, ptr %10) #3
  call void @llvm.lifetime.start.p0(i64 1, ptr %11) #3
  call void @_ZNSaIcEC2Ev(ptr noundef nonnull align 1 dereferenceable(1) %11) #3
  invoke void @_ZNSt7__cxx1112basic_stringIcSt11char_traitsIcESaIcEEC2EPKcRKS3_(ptr noundef nonnull align 8 dereferenceable(32) %10, ptr noundef @.str, ptr noundef nonnull align 1 dereferenceable(1) %11)
          to label %44 unwind label %47

44:                                               ; preds = %41
  %45 = invoke noundef i32 @_ZN8LightGBM23LGBM_APIHandleExceptionERKNSt7__cxx1112basic_stringIcSt11char_traitsIcESaIcEEE(ptr noundef nonnull align 8 dereferenceable(32) %10)
          to label %46 unwind label %51

46:                                               ; preds = %44
  store i32 %45, ptr %3, align 4
  call void @_ZNSt7__cxx1112basic_stringIcSt11char_traitsIcESaIcEED2Ev(ptr noundef nonnull align 8 dereferenceable(32) %10) #3
  call void @_ZNSt15__new_allocatorIcED2Ev(ptr noundef nonnull align 1 dereferenceable(1) %11) #3
  call void @llvm.lifetime.end.p0(i64 1, ptr %11) #3
  call void @llvm.lifetime.end.p0(i64 32, ptr %10) #3
  call void @__cxa_end_catch()
  br label %63

47:                                               ; preds = %41
  %48 = landingpad { ptr, i32 }
          cleanup
  %49 = extractvalue { ptr, i32 } %48, 0
  store ptr %49, ptr %8, align 8
  %50 = extractvalue { ptr, i32 } %48, 1
  store i32 %50, ptr %9, align 4
  br label %55

51:                                               ; preds = %44
  %52 = landingpad { ptr, i32 }
          cleanup
  %53 = extractvalue { ptr, i32 } %52, 0
  store ptr %53, ptr %8, align 8
  %54 = extractvalue { ptr, i32 } %52, 1
  store i32 %54, ptr %9, align 4
  call void @_ZNSt7__cxx1112basic_stringIcSt11char_traitsIcESaIcEED2Ev(ptr noundef nonnull align 8 dereferenceable(32) %10) #3
  br label %55

55:                                               ; preds = %51, %47
  call void @_ZNSt15__new_allocatorIcED2Ev(ptr noundef nonnull align 1 dereferenceable(1) %11) #3
  call void @llvm.lifetime.end.p0(i64 1, ptr %11) #3
  call void @llvm.lifetime.end.p0(i64 32, ptr %10) #3
  invoke void @__cxa_end_catch()
          to label %56 unwind label %70

56:                                               ; preds = %55
  br label %65

57:                                               ; preds = %35
  %58 = landingpad { ptr, i32 }
          cleanup
  %59 = extractvalue { ptr, i32 } %58, 0
  store ptr %59, ptr %8, align 8
  %60 = extractvalue { ptr, i32 } %58, 1
  store i32 %60, ptr %9, align 4
  invoke void @__cxa_end_catch()
          to label %61 unwind label %70

61:                                               ; preds = %57
  call void @llvm.lifetime.end.p0(i64 8, ptr %12) #3
  br label %65

62:                                               ; preds = %18
  store i32 0, ptr %3, align 4
  br label %63

63:                                               ; preds = %62, %27, %40, %46
  %64 = load i32, ptr %3, align 4
  ret i32 %64

65:                                               ; preds = %61, %56
  %66 = load ptr, ptr %8, align 8
  %67 = load i32, ptr %9, align 4
  %68 = insertvalue { ptr, i32 } poison, ptr %66, 0
  %69 = insertvalue { ptr, i32 } %68, i32 %67, 1
  resume { ptr, i32 } %69

70:                                               ; preds = %57, %55
  %71 = landingpad { ptr, i32 }
          catch ptr null
  %72 = extractvalue { ptr, i32 } %71, 0
  call void @__clang_call_terminate(ptr %72) #30
  unreachable
}