; Function Attrs: mustprogress uwtable
define range(i32 -1, 1) i32 @LGBM_DatasetAddFeaturesFrom(ptr noundef nonnull %0, ptr noundef %1) local_unnamed_addr #5 personality ptr @__gxx_personality_v0 {
  %3 = alloca %"class.std::__cxx11::basic_string", align 8
  %4 = alloca %"class.std::allocator", align 1
  invoke void @_ZN8LightGBM7Dataset15AddFeaturesFromEPS0_(ptr noundef nonnull align 8 dereferenceable(864) %0, ptr noundef %1)
          to label %40 unwind label %5

5:                                                ; preds = %2
  %6 = landingpad { ptr, i32 }
          catch ptr @_ZTISt9exception
          catch ptr @_ZTINSt7__cxx1112basic_stringIcSt11char_traitsIcESaIcEEE
          catch ptr null
  %7 = extractvalue { ptr, i32 } %6, 0
  %8 = extractvalue { ptr, i32 } %6, 1
  %9 = tail call i32 @llvm.eh.typeid.for.p0(ptr nonnull @_ZTISt9exception) #26
  %10 = icmp eq i32 %8, %9
  br i1 %10, label %11, label %19

11:                                               ; preds = %5
  %12 = tail call ptr @__cxa_begin_catch(ptr %7) #26
  %13 = load ptr, ptr %12, align 8, !tbaa !14
  %14 = getelementptr inbounds nuw i8, ptr %13, i64 16
  %15 = load ptr, ptr %14, align 8
  %16 = tail call noundef ptr %15(ptr noundef nonnull align 8 dereferenceable(8) %12) #26
  %17 = tail call noundef nonnull align 16 ptr @llvm.threadlocal.address.p0(ptr align 16 @_ZZL12LastErrorMsgvE7err_msg)
  %18 = tail call i32 (ptr, i64, ptr, ...) @snprintf(ptr noundef nonnull dereferenceable(1) %17, i64 noundef 512, ptr noundef nonnull @.str.1, ptr noundef %16) #26
  tail call void @__cxa_end_catch()
  br label %40

19:                                               ; preds = %5
  %20 = tail call i32 @llvm.eh.typeid.for.p0(ptr nonnull @_ZTINSt7__cxx1112basic_stringIcSt11char_traitsIcESaIcEEE) #26
  %21 = icmp eq i32 %8, %20
  %22 = tail call ptr @__cxa_begin_catch(ptr %7) #26
  br i1 %21, label %23, label %27

23:                                               ; preds = %19
  %24 = load ptr, ptr %22, align 8, !tbaa !13
  %25 = tail call noundef nonnull align 16 ptr @llvm.threadlocal.address.p0(ptr align 16 @_ZZL12LastErrorMsgvE7err_msg)
  %26 = tail call i32 (ptr, i64, ptr, ...) @snprintf(ptr noundef nonnull dereferenceable(1) %25, i64 noundef 512, ptr noundef nonnull @.str.1, ptr noundef %24) #26
  tail call void @__cxa_end_catch()
  br label %40

27:                                               ; preds = %19
  call void @llvm.lifetime.start.p0(i64 32, ptr nonnull %3) #26
  call void @llvm.lifetime.start.p0(i64 1, ptr nonnull %4) #26
  invoke void @_ZNSt7__cxx1112basic_stringIcSt11char_traitsIcESaIcEEC2EPKcRKS3_(ptr noundef nonnull align 8 dereferenceable(32) %3, ptr noundef nonnull @.str, ptr noundef nonnull align 1 dereferenceable(1) %4)
          to label %28 unwind label %38

28:                                               ; preds = %27
  %29 = load ptr, ptr %3, align 8, !tbaa !13
  %30 = call noundef nonnull align 16 ptr @llvm.threadlocal.address.p0(ptr align 16 @_ZZL12LastErrorMsgvE7err_msg)
  %31 = call i32 (ptr, i64, ptr, ...) @snprintf(ptr noundef nonnull dereferenceable(1) %30, i64 noundef 512, ptr noundef nonnull @.str.1, ptr noundef %29) #26
  %32 = load ptr, ptr %3, align 8, !tbaa !13
  %33 = getelementptr inbounds nuw i8, ptr %3, i64 16
  %34 = icmp eq ptr %32, %33
  br i1 %34, label %_ZNKSt7__cxx1112basic_stringIcSt11char_traitsIcESaIcEE11_M_is_localEv.exit.thread.i.i, label %_ZNKSt7__cxx1112basic_stringIcSt11char_traitsIcESaIcEE11_M_is_localEv.exit.i.i

_ZNKSt7__cxx1112basic_stringIcSt11char_traitsIcESaIcEE11_M_is_localEv.exit.thread.i.i: ; preds = %28
  %35 = getelementptr inbounds nuw i8, ptr %3, i64 8
  %36 = load i64, ptr %35, align 8, !tbaa !4
  %37 = icmp ult i64 %36, 16
  call void @llvm.assume(i1 %37)
  br label %_ZNSt7__cxx1112basic_stringIcSt11char_traitsIcESaIcEED2Ev.exit

_ZNKSt7__cxx1112basic_stringIcSt11char_traitsIcESaIcEE11_M_is_localEv.exit.i.i: ; preds = %28
  call void @_ZdlPv(ptr noundef %32) #39
  br label %_ZNSt7__cxx1112basic_stringIcSt11char_traitsIcESaIcEED2Ev.exit

_ZNSt7__cxx1112basic_stringIcSt11char_traitsIcESaIcEED2Ev.exit: ; preds = %_ZNKSt7__cxx1112basic_stringIcSt11char_traitsIcESaIcEE11_M_is_localEv.exit.thread.i.i, %_ZNKSt7__cxx1112basic_stringIcSt11char_traitsIcESaIcEE11_M_is_localEv.exit.i.i
  call void @llvm.lifetime.end.p0(i64 1, ptr nonnull %4) #26
  call void @llvm.lifetime.end.p0(i64 32, ptr nonnull %3) #26
  call void @__cxa_end_catch()
  br label %40

38:                                               ; preds = %27
  %39 = landingpad { ptr, i32 }
          cleanup
  call void @llvm.lifetime.end.p0(i64 1, ptr nonnull %4) #26
  call void @llvm.lifetime.end.p0(i64 32, ptr nonnull %3) #26
  invoke void @__cxa_end_catch()
          to label %41 unwind label %42

40:                                               ; preds = %2, %_ZNSt7__cxx1112basic_stringIcSt11char_traitsIcESaIcEED2Ev.exit, %23, %11
  %.0 = phi i32 [ -1, %11 ], [ -1, %23 ], [ -1, %_ZNSt7__cxx1112basic_stringIcSt11char_traitsIcESaIcEED2Ev.exit ], [ 0, %2 ]
  ret i32 %.0

41:                                               ; preds = %38
  resume { ptr, i32 } %39

42:                                               ; preds = %38
  %43 = landingpad { ptr, i32 }
          catch ptr null
  %44 = extractvalue { ptr, i32 } %43, 0
  call void @__clang_call_terminate(ptr %44) #40
  unreachable
}